target datalayout = "e-m:e-p270:32:32-p271:32:32-p272:64:64-i64:64-i128:128-f80:128-n8:16:32:64-S128"
target triple = "x86_64-unknown-linux-gnu"

%"class.Imath_3_2::Vec2" = type { i32, i32 }
%"class.Imf_3_2::Image" = type { ptr, %"class.Imath_3_2::Box", i32, i32, %"class.std::map", %"class.Imf_3_2::Array2D" }
%"class.Imath_3_2::Box" = type { %"class.Imath_3_2::Vec2", %"class.Imath_3_2::Vec2" }
%"class.std::map" = type { %"class.std::_Rb_tree" }
%"class.std::_Rb_tree" = type { %"struct.std::_Rb_tree<std::__cxx11::basic_string<char>, std::pair<const std::__cxx11::basic_string<char>, Imf_3_2::Image::ChannelInfo>, std::_Select1st<std::pair<const std::__cxx11::basic_string<char>, Imf_3_2::Image::ChannelInfo>>, std::less<std::__cxx11::basic_string<char>>>::_Rb_tree_impl" }
%"struct.std::_Rb_tree<std::__cxx11::basic_string<char>, std::pair<const std::__cxx11::basic_string<char>, Imf_3_2::Image::ChannelInfo>, std::_Select1st<std::pair<const std::__cxx11::basic_string<char>, Imf_3_2::Image::ChannelInfo>>, std::less<std::__cxx11::basic_string<char>>>::_Rb_tree_impl" = type { %"struct.std::_Rb_tree_key_compare", %"struct.std::_Rb_tree_header" }
%"struct.std::_Rb_tree_key_compare" = type { %"struct.std::less" }
%"struct.std::less" = type { i8 }
%"struct.std::_Rb_tree_header" = type { %"struct.std::_Rb_tree_node_base", i64 }
%"struct.std::_Rb_tree_node_base" = type { i32, ptr, ptr, ptr }
%"class.Imf_3_2::Array2D" = type { i64, i64, ptr }
%"struct.Imf_3_2::Image::ChannelInfo" = type <{ i32, i32, i32, i8, [3 x i8] }>

@_ZN7Imf_3_25Image11ChannelInfoC1ENS_9PixelTypeEiib = hidden unnamed_addr alias void (ptr, i32, i32, i32, i1), ptr @_ZN7Imf_3_25Image11ChannelInfoC2ENS_9PixelTypeEiib

; Function Attrs: mustprogress nounwind uwtable
define linkonce_odr hidden noundef ptr @_ZN7Imf_3_27Array2DIPNS_10ImageLevelEEixEl(ptr noundef nonnull align 8 dereferenceable(24) %this, i64 noundef %x) #5 comdat align 2 {
entry:
  %this.addr = alloca ptr, align 8
  %x.addr = alloca i64, align 8
  store ptr %this, ptr %this.addr, align 8
  store i64 %x, ptr %x.addr, align 8
  %this1 = load ptr, ptr %this.addr, align 8
  %_data = getelementptr inbounds %"class.Imf_3_2::Array2D", ptr %this1, i32 0, i32 2
  %0 = load ptr, ptr %_data, align 8
  %1 = load i64, ptr %x.addr, align 8
  %_sizeY = getelementptr inbounds %"class.Imf_3_2::Array2D", ptr %this1, i32 0, i32 1
  %2 = load i64, ptr %_sizeY, align 8
  %mul = mul nsw i64 %1, %2
  %add.ptr = getelementptr inbounds ptr, ptr %0, i64 %mul
  ret ptr %add.ptr
}

; Function Attrs: mustprogress nounwind uwtable
define linkonce_odr hidden noundef i64 @_ZNK7Imf_3_27Array2DIPNS_10ImageLevelEE5widthEv(ptr noundef nonnull align 8 dereferenceable(24) %this) #5 comdat align 2 {
entry:
  %this.addr = alloca ptr, align 8
  store ptr %this, ptr %this.addr, align 8
  %this1 = load ptr, ptr %this.addr, align 8
  %_sizeY = getelementptr inbounds %"class.Imf_3_2::Array2D", ptr %this1, i32 0, i32 1
  %0 = load i64, ptr %_sizeY, align 8
  ret i64 %0
}

; Function Attrs: mustprogress nounwind uwtable
define linkonce_odr hidden noundef i64 @_ZNK7Imf_3_27Array2DIPNS_10ImageLevelEE6heightEv(ptr noundef nonnull align 8 dereferenceable(24) %this) #5 comdat align 2 {
entry:
  %this.addr = alloca ptr, align 8
  store ptr %this, ptr %this.addr, align 8
  %this1 = load ptr, ptr %this.addr, align 8
  %_sizeX = getelementptr inbounds %"class.Imf_3_2::Array2D", ptr %this1, i32 0, i32 0
  %0 = load i64, ptr %_sizeX, align 8
  ret i64 %0
}

; Function Attrs: mustprogress uwtable
define void @_ZN7Imf_3_25Image13insertChannelERKNSt7__cxx1112basic_stringIcSt11char_traitsIcESaIcEEENS_9PixelTypeEiib(ptr noundef nonnull align 8 dereferenceable(104) %this, ptr noundef nonnull align 8 dereferenceable(32) %name, i32 noundef %type, i32 noundef %xSampling, i32 noundef %ySampling, i1 noundef zeroext %pLinear) #4 align 2 personality ptr @__gxx_personality_v0 {
entry:
  %this.addr = alloca ptr, align 8
  %name.addr = alloca ptr, align 8
  %type.addr = alloca i32, align 4
  %xSampling.addr = alloca i32, align 4
  %ySampling.addr = alloca i32, align 4
  %pLinear.addr = alloca i8, align 1
  %ref.tmp = alloca %"struct.Imf_3_2::Image::ChannelInfo", align 4
  %exn.slot = alloca ptr, align 8
  %ehselector.slot = alloca i32, align 4
  %y = alloca i32, align 4
  %x = alloca i32, align 4
  store ptr %this, ptr %this.addr, align 8
  store ptr %name, ptr %name.addr, align 8
  store i32 %type, ptr %type.addr, align 4
  store i32 %xSampling, ptr %xSampling.addr, align 4
  store i32 %ySampling, ptr %ySampling.addr, align 4
  %frombool = zext i1 %pLinear to i8
  store i8 %frombool, ptr %pLinear.addr, align 1
  %this1 = load ptr, ptr %this.addr, align 8
  %0 = load i32, ptr %type.addr, align 4
  %1 = load i32, ptr %xSampling.addr, align 4
  %2 = load i32, ptr %ySampling.addr, align 4
  %3 = load i8, ptr %pLinear.addr, align 1
  %tobool = trunc i8 %3 to i1
  invoke void @_ZN7Imf_3_25Image11ChannelInfoC1ENS_9PixelTypeEiib(ptr noundef nonnull align 4 dereferenceable(13) %ref.tmp, i32 noundef %0, i32 noundef %1, i32 noundef %2, i1 noundef zeroext %tobool)
          to label %invoke.cont unwind label %lpad

invoke.cont:                                      ; preds = %entry
  %_channels = getelementptr inbounds %"class.Imf_3_2::Image", ptr %this1, i32 0, i32 4
  %4 = load ptr, ptr %name.addr, align 8
  %call = invoke noundef nonnull align 4 dereferenceable(13) ptr @_ZNSt3mapINSt7__cxx1112basic_stringIcSt11char_traitsIcESaIcEEEN7Imf_3_25Image11ChannelInfoESt4lessIS5_ESaISt4pairIKS5_S8_EEEixERSC_(ptr noundef nonnull align 8 dereferenceable(48) %_channels, ptr noundef nonnull align 8 dereferenceable(32) %4)
          to label %invoke.cont2 unwind label %lpad

invoke.cont2:                                     ; preds = %invoke.cont
  call void @llvm.memcpy.p0.p0.i64(ptr align 4 %call, ptr align 4 %ref.tmp, i64 13, i1 false)
  store i32 0, ptr %y, align 4
  br label %for.cond

for.cond:                                         ; preds = %for.inc25, %invoke.cont2
  %5 = load i32, ptr %y, align 4
  %conv = sext i32 %5 to i64
  %_levels = getelementptr inbounds %"class.Imf_3_2::Image", ptr %this1, i32 0, i32 5
  %call4 = invoke noundef i64 @_ZNK7Imf_3_27Array2DIPNS_10ImageLevelEE6heightEv(ptr noundef nonnull align 8 dereferenceable(24) %_levels)
          to label %invoke.cont3 unwind label %lpad

invoke.cont3:                                     ; preds = %for.cond
  %cmp = icmp slt i64 %conv, %call4
  br i1 %cmp, label %for.body, label %for.end27

for.body:                                         ; preds = %invoke.cont3
  store i32 0, ptr %x, align 4
  br label %for.cond5

for.cond5:                                        ; preds = %for.inc, %for.body
  %6 = load i32, ptr %x, align 4
  %conv6 = sext i32 %6 to i64
  %_levels7 = getelementptr inbounds %"class.Imf_3_2::Image", ptr %this1, i32 0, i32 5
  %call9 = invoke noundef i64 @_ZNK7Imf_3_27Array2DIPNS_10ImageLevelEE5widthEv(ptr noundef nonnull align 8 dereferenceable(24) %_levels7)
          to label %invoke.cont8 unwind label %lpad

invoke.cont8:                                     ; preds = %for.cond5
  %cmp10 = icmp slt i64 %conv6, %call9
  br i1 %cmp10, label %for.body11, label %for.end

for.body11:                                       ; preds = %invoke.cont8
  %_levels12 = getelementptr inbounds %"class.Imf_3_2::Image", ptr %this1, i32 0, i32 5
  %7 = load i32, ptr %y, align 4
  %conv13 = sext i32 %7 to i64
  %call15 = invoke noundef ptr @_ZN7Imf_3_27Array2DIPNS_10ImageLevelEEixEl(ptr noundef nonnull align 8 dereferenceable(24) %_levels12, i64 noundef %conv13)
          to label %invoke.cont14 unwind label %lpad

invoke.cont14:                                    ; preds = %for.body11
  %8 = load i32, ptr %x, align 4
  %idxprom = sext i32 %8 to i64
  %arrayidx = getelementptr inbounds ptr, ptr %call15, i64 %idxprom
  %9 = load ptr, ptr %arrayidx, align 8
  %tobool16 = icmp ne ptr %9, null
  br i1 %tobool16, label %if.then, label %if.end

if.then:                                          ; preds = %invoke.cont14
  %_levels17 = getelementptr inbounds %"class.Imf_3_2::Image", ptr %this1, i32 0, i32 5
  %10 = load i32, ptr %y, align 4
  %conv18 = sext i32 %10 to i64
  %call20 = invoke noundef ptr @_ZN7Imf_3_27Array2DIPNS_10ImageLevelEEixEl(ptr noundef nonnull align 8 dereferenceable(24) %_levels17, i64 noundef %conv18)
          to label %invoke.cont19 unwind label %lpad

invoke.cont19:                                    ; preds = %if.then
  %11 = load i32, ptr %x, align 4
  %idxprom21 = sext i32 %11 to i64
  %arrayidx22 = getelementptr inbounds ptr, ptr %call20, i64 %idxprom21
  %12 = load ptr, ptr %arrayidx22, align 8
  %13 = load ptr, ptr %name.addr, align 8
  %14 = load i32, ptr %type.addr, align 4
  %15 = load i32, ptr %xSampling.addr, align 4
  %16 = load i32, ptr %ySampling.addr, align 4
  %17 = load i8, ptr %pLinear.addr, align 1
  %tobool23 = trunc i8 %17 to i1
  %vtable = load ptr, ptr %12, align 8
  %vfn = getelementptr inbounds ptr, ptr %vtable, i64 4
  %18 = load ptr, ptr %vfn, align 8
  invoke void %18(ptr noundef nonnull align 8 dereferenceable(40) %12, ptr noundef nonnull align 8 dereferenceable(32) %13, i32 noundef %14, i32 noundef %15, i32 noundef %16, i1 noundef zeroext %tobool23)
          to label %invoke.cont24 unwind label %lpad

invoke.cont24:                                    ; preds = %invoke.cont19
  br label %if.end

lpad:                                             ; preds = %invoke.cont19, %if.then, %for.body11, %for.cond5, %for.cond, %invoke.cont, %entry
  %19 = landingpad { ptr, i32 }
          catch ptr null
  %20 = extractvalue { ptr, i32 } %19, 0
  store ptr %20, ptr %exn.slot, align 8
  %21 = extractvalue { ptr, i32 } %19, 1
  store i32 %21, ptr %ehselector.slot, align 4
  br label %catch

catch:                                            ; preds = %lpad
  %exn = load ptr, ptr %exn.slot, align 8
  %22 = call ptr @__cxa_begin_catch(ptr %exn) #3
  %23 = load ptr, ptr %name.addr, align 8
  invoke void @_ZN7Imf_3_25Image12eraseChannelERKNSt7__cxx1112basic_stringIcSt11char_traitsIcESaIcEEE(ptr noundef nonnull align 8 dereferenceable(104) %this1, ptr noundef nonnull align 8 dereferenceable(32) %23)
          to label %invoke.cont29 unwind label %lpad28

invoke.cont29:                                    ; preds = %catch
  invoke void @__cxa_rethrow() #17
          to label %unreachable unwind label %lpad28

if.end:                                           ; preds = %invoke.cont24, %invoke.cont14
  br label %for.inc

for.inc:                                          ; preds = %if.end
  %24 = load i32, ptr %x, align 4
  %inc = add nsw i32 %24, 1
  store i32 %inc, ptr %x, align 4
  br label %for.cond5, !llvm.loop !15

for.end:                                          ; preds = %invoke.cont8
  br label %for.inc25

for.inc25:                                        ; preds = %for.end
  %25 = load i32, ptr %y, align 4
  %inc26 = add nsw i32 %25, 1
  store i32 %inc26, ptr %y, align 4
  br label %for.cond, !llvm.loop !16

for.end27:                                        ; preds = %invoke.cont3
  br label %try.cont

lpad28:                                           ; preds = %invoke.cont29, %catch
  %26 = landingpad { ptr, i32 }
          cleanup
  %27 = extractvalue { ptr, i32 } %26, 0
  store ptr %27, ptr %exn.slot, align 8
  %28 = extractvalue { ptr, i32 } %26, 1
  store i32 %28, ptr %ehselector.slot, align 4
  invoke void @__cxa_end_catch()
          to label %invoke.cont30 unwind label %terminate.lpad

invoke.cont30:                                    ; preds = %lpad28
  br label %eh.resume

try.cont:                                         ; preds = %for.end27
  ret void

eh.resume:                                        ; preds = %invoke.cont30
  %exn31 = load ptr, ptr %exn.slot, align 8
  %sel = load i32, ptr %ehselector.slot, align 4
  %lpad.val = insertvalue { ptr, i32 } poison, ptr %exn31, 0
  %lpad.val32 = insertvalue { ptr, i32 } %lpad.val, i32 %sel, 1
  resume { ptr, i32 } %lpad.val32

terminate.lpad:                                   ; preds = %lpad28
  %29 = landingpad { ptr, i32 }
          catch ptr null
  %30 = extractvalue { ptr, i32 } %29, 0
  call void @__clang_call_terminate(ptr %30) #15
  unreachable

unreachable:                                      ; preds = %invoke.cont29
  unreachable
}