; Function Attrs: mustprogress uwtable
define void @_ZN7Imf_3_25Image13insertChannelERKNSt7__cxx1112basic_stringIcSt11char_traitsIcESaIcEEENS_9PixelTypeEiib(ptr noundef nonnull align 8 dereferenceable(104) %this, ptr noundef nonnull align 8 dereferenceable(32) %name, i32 noundef %type, i32 noundef %xSampling, i32 noundef %ySampling, i1 noundef zeroext %pLinear) local_unnamed_addr #6 align 2 personality ptr @__gxx_personality_v0 {
entry:
  %_channels = getelementptr inbounds i8, ptr %this, i64 32
  %call = invoke noundef nonnull align 4 dereferenceable(13) ptr @_ZNSt3mapINSt7__cxx1112basic_stringIcSt11char_traitsIcESaIcEEEN7Imf_3_25Image11ChannelInfoESt4lessIS5_ESaISt4pairIKS5_S8_EEEixERSC_(ptr noundef nonnull align 8 dereferenceable(48) %_channels, ptr noundef nonnull align 8 dereferenceable(32) %name)
          to label %invoke.cont2 unwind label %lpad.loopexit.split-lp

invoke.cont2:                                     ; preds = %entry
  %frombool.i = zext i1 %pLinear to i8
  store i32 %type, ptr %call, align 4
  %ref.tmp.sroa.2.0.call.sroa_idx = getelementptr inbounds i8, ptr %call, i64 4
  store i32 %xSampling, ptr %ref.tmp.sroa.2.0.call.sroa_idx, align 4
  %ref.tmp.sroa.3.0.call.sroa_idx = getelementptr inbounds i8, ptr %call, i64 8
  store i32 %ySampling, ptr %ref.tmp.sroa.3.0.call.sroa_idx, align 4
  %ref.tmp.sroa.4.0.call.sroa_idx = getelementptr inbounds i8, ptr %call, i64 12
  store i8 %frombool.i, ptr %ref.tmp.sroa.4.0.call.sroa_idx, align 4
  %_levels = getelementptr inbounds i8, ptr %this, i64 80
  %0 = load i64, ptr %_levels, align 8
  %cmp23 = icmp sgt i64 %0, 0
  br i1 %cmp23, label %for.cond5.preheader.lr.ph, label %try.cont

for.cond5.preheader.lr.ph:                        ; preds = %invoke.cont2
  %_sizeY.i = getelementptr inbounds i8, ptr %this, i64 88
  %_data.i = getelementptr inbounds i8, ptr %this, i64 96
  %1 = load i64, ptr %_sizeY.i, align 8
  %2 = icmp sgt i64 %1, 0
  br i1 %2, label %for.cond5.preheader, label %try.cont

for.cond5.preheader:                              ; preds = %for.cond5.preheader.lr.ph, %for.inc25
  %3 = phi i64 [ %14, %for.inc25 ], [ %0, %for.cond5.preheader.lr.ph ]
  %4 = phi i64 [ %15, %for.inc25 ], [ %1, %for.cond5.preheader.lr.ph ]
  %5 = phi i64 [ %16, %for.inc25 ], [ %1, %for.cond5.preheader.lr.ph ]
  %indvars.iv29 = phi i64 [ %indvars.iv.next30, %for.inc25 ], [ 0, %for.cond5.preheader.lr.ph ]
  %cmp1020 = icmp sgt i64 %5, 0
  br i1 %cmp1020, label %for.body11, label %for.inc25

for.body11:                                       ; preds = %for.cond5.preheader, %for.inc
  %6 = phi i64 [ %13, %for.inc ], [ %4, %for.cond5.preheader ]
  %indvars.iv = phi i64 [ %indvars.iv.next, %for.inc ], [ 0, %for.cond5.preheader ]
  %7 = phi i64 [ %13, %for.inc ], [ %5, %for.cond5.preheader ]
  %8 = load ptr, ptr %_data.i, align 8
  %mul.i = mul nsw i64 %7, %indvars.iv29
  %add.ptr.i = getelementptr inbounds ptr, ptr %8, i64 %mul.i
  %arrayidx = getelementptr inbounds ptr, ptr %add.ptr.i, i64 %indvars.iv
  %9 = load ptr, ptr %arrayidx, align 8
  %tobool16.not = icmp eq ptr %9, null
  br i1 %tobool16.not, label %for.inc, label %if.then

if.then:                                          ; preds = %for.body11
  %vtable = load ptr, ptr %9, align 8
  %vfn = getelementptr inbounds i8, ptr %vtable, i64 32
  %10 = load ptr, ptr %vfn, align 8
  invoke void %10(ptr noundef nonnull align 8 dereferenceable(40) %9, ptr noundef nonnull align 8 dereferenceable(32) %name, i32 noundef %type, i32 noundef %xSampling, i32 noundef %ySampling, i1 noundef zeroext %pLinear)
          to label %if.then.for.inc_crit_edge unwind label %lpad.loopexit

if.then.for.inc_crit_edge:                        ; preds = %if.then
  %.pre = load i64, ptr %_sizeY.i, align 8
  br label %for.inc

lpad.loopexit:                                    ; preds = %if.then
  %lpad.loopexit18 = landingpad { ptr, i32 }
          catch ptr null
  br label %lpad

lpad.loopexit.split-lp:                           ; preds = %entry
  %lpad.loopexit.split-lp19 = landingpad { ptr, i32 }
          catch ptr null
  br label %lpad

lpad:                                             ; preds = %lpad.loopexit.split-lp, %lpad.loopexit
  %lpad.phi = phi { ptr, i32 } [ %lpad.loopexit18, %lpad.loopexit ], [ %lpad.loopexit.split-lp19, %lpad.loopexit.split-lp ]
  %11 = extractvalue { ptr, i32 } %lpad.phi, 0
  %12 = tail call ptr @__cxa_begin_catch(ptr %11) #22
  invoke void @_ZN7Imf_3_25Image12eraseChannelERKNSt7__cxx1112basic_stringIcSt11char_traitsIcESaIcEEE(ptr noundef nonnull align 8 dereferenceable(104) %this, ptr noundef nonnull align 8 dereferenceable(32) %name)
          to label %invoke.cont29 unwind label %lpad28

invoke.cont29:                                    ; preds = %lpad
  invoke void @__cxa_rethrow() #25
          to label %unreachable unwind label %lpad28

for.inc:                                          ; preds = %if.then.for.inc_crit_edge, %for.body11
  %13 = phi i64 [ %.pre, %if.then.for.inc_crit_edge ], [ %6, %for.body11 ]
  %indvars.iv.next = add nuw nsw i64 %indvars.iv, 1
  %cmp10 = icmp sgt i64 %13, %indvars.iv.next
  br i1 %cmp10, label %for.body11, label %for.inc25.loopexit, !llvm.loop !21

for.inc25.loopexit:                               ; preds = %for.inc
  %.pre32 = load i64, ptr %_levels, align 8
  br label %for.inc25

for.inc25:                                        ; preds = %for.inc25.loopexit, %for.cond5.preheader
  %14 = phi i64 [ %.pre32, %for.inc25.loopexit ], [ %3, %for.cond5.preheader ]
  %15 = phi i64 [ %13, %for.inc25.loopexit ], [ %4, %for.cond5.preheader ]
  %16 = phi i64 [ %13, %for.inc25.loopexit ], [ %5, %for.cond5.preheader ]
  %indvars.iv.next30 = add nuw nsw i64 %indvars.iv29, 1
  %cmp = icmp sgt i64 %14, %indvars.iv.next30
  br i1 %cmp, label %for.cond5.preheader, label %try.cont, !llvm.loop !22

lpad28:                                           ; preds = %invoke.cont29, %lpad
  %17 = landingpad { ptr, i32 }
          cleanup
  invoke void @__cxa_end_catch()
          to label %eh.resume unwind label %terminate.lpad

try.cont:                                         ; preds = %for.inc25, %for.cond5.preheader.lr.ph, %invoke.cont2
  ret void

eh.resume:                                        ; preds = %lpad28
  resume { ptr, i32 } %17

terminate.lpad:                                   ; preds = %lpad28
  %18 = landingpad { ptr, i32 }
          catch ptr null
  %19 = extractvalue { ptr, i32 } %18, 0
  tail call void @__clang_call_terminate(ptr %19) #21
  unreachable

unreachable:                                      ; preds = %invoke.cont29
  unreachable
}